target datalayout = "e-m:e-p270:32:32-p271:32:32-p272:64:64-i64:64-i128:128-f80:128-n8:16:32:64-S128"
target triple = "x86_64-pc-linux-gnu"

%struct.evp_rand_ctx_st = type { ptr, ptr, ptr, %struct.CRYPTO_REF_COUNT, ptr }
%struct.CRYPTO_REF_COUNT = type { i32 }
%struct.FAKE_RAND = type { ptr, i32, ptr, ptr }

; Function Attrs: nounwind uwtable
define void @fake_rand_set_callback(ptr noundef %0, ptr noundef %1) #0 {
  %3 = alloca ptr, align 8
  %4 = alloca ptr, align 8
  store ptr %0, ptr %3, align 8, !tbaa !17
  store ptr %1, ptr %4, align 8, !tbaa !16
  %5 = load ptr, ptr %3, align 8, !tbaa !17
  %6 = icmp ne ptr %5, null
  br i1 %6, label %7, label %13

7:                                                ; preds = %2
  %8 = load ptr, ptr %4, align 8, !tbaa !16
  %9 = load ptr, ptr %3, align 8, !tbaa !17
  %10 = getelementptr inbounds nuw %struct.evp_rand_ctx_st, ptr %9, i32 0, i32 1
  %11 = load ptr, ptr %10, align 8, !tbaa !21
  %12 = getelementptr inbounds nuw %struct.FAKE_RAND, ptr %11, i32 0, i32 0
  store ptr %8, ptr %12, align 8, !tbaa !29
  br label %13

13:                                               ; preds = %7, %2
  ret void
}